target datalayout = "e-m:e-p270:32:32-p271:32:32-p272:64:64-i64:64-i128:128-f80:128-n8:16:32:64-S128"
target triple = "x86_64-pc-linux-gnu"

%"class.smt::theory_array" = type <{ %"class.smt::theory_array_base.base", [7 x i8], %class.ptr_vector.20, ptr, %"struct.smt::theory_array_stats", [4 x i8], %class.union_find, %class.trail_stack, i32, [4 x i8] }>
%"class.smt::theory_array_base.base" = type <{ %"class.smt::theory.base", i8, [2 x i8], i32, [4 x i8], %class.svector.1, %class.ptr_vector, %class.svector.3, %class.svector.3, %class.svector.3, %class.scoped_ptr, %class.ptr_vector.5, %class.obj_map, %class.ptr_hashtable, %class.svector.9, ptr, %class.ptr_vector, %class.ptr_vector.11, %class.svector.1, %class.obj_map.13, %class.ptr_vector, %class.ptr_vector.18, i8 }>
%"class.smt::theory.base" = type <{ ptr, i32, [4 x i8], ptr, ptr, %class.ptr_vector, %class.svector, i32, i8 }>
%class.svector = type { %class.vector.0 }
%class.vector.0 = type { ptr }
%class.svector.3 = type { %class.vector.4 }
%class.vector.4 = type { ptr }
%class.scoped_ptr = type { ptr }
%class.ptr_vector.5 = type { %class.vector.6 }
%class.vector.6 = type { ptr }
%class.obj_map = type { %class.core_hashtable }
%class.core_hashtable = type <{ ptr, i32, i32, i32, [4 x i8] }>
%class.ptr_hashtable = type { %class.core_hashtable.base.8, [4 x i8] }
%class.core_hashtable.base.8 = type <{ ptr, i32, i32, i32 }>
%class.svector.9 = type { %class.vector.10 }
%class.vector.10 = type { ptr }
%class.ptr_vector.11 = type { %class.vector.12 }
%class.vector.12 = type { ptr }
%class.svector.1 = type { %class.vector.2 }
%class.vector.2 = type { ptr }
%class.obj_map.13 = type { %class.core_hashtable.14 }
%class.core_hashtable.14 = type <{ ptr, i32, i32, i32, [4 x i8] }>
%class.ptr_vector = type { %class.vector }
%class.vector = type { ptr }
%class.ptr_vector.18 = type { %class.vector.19 }
%class.vector.19 = type { ptr }
%class.ptr_vector.20 = type { %class.vector.21 }
%class.vector.21 = type { ptr }
%"struct.smt::theory_array_stats" = type { i32, i32, i32, i32, i32, i32, i32, i32, i32, i32, i32, i32, i32 }
%class.union_find = type { ptr, ptr, %class.svector, %class.svector, %class.svector, %"class.union_find<smt::theory_array>::mk_var_trail" }
%"class.union_find<smt::theory_array>::mk_var_trail" = type { %class.trail, ptr }
%class.trail = type { ptr }
%class.trail_stack = type { %class.ptr_vector.22, %class.svector, %class.region }
%class.ptr_vector.22 = type { %class.vector.23 }
%class.vector.23 = type { ptr }
%class.region = type { ptr, ptr, ptr, ptr, ptr }

@.str.20 = private unnamed_addr constant [10 x i8] c"array ax1\00", align 1
@.str.21 = private unnamed_addr constant [10 x i8] c"array ax2\00", align 1
@.str.22 = private unnamed_addr constant [14 x i8] c"array exp ax2\00", align 1
@.str.23 = private unnamed_addr constant [13 x i8] c"array ext ax\00", align 1
@.str.24 = private unnamed_addr constant [13 x i8] c"array splits\00", align 1

; Function Attrs: mustprogress uwtable
define hidden void @_ZNK3smt12theory_array18collect_statisticsER10statistics(ptr noundef nonnull align 8 dereferenceable(444) %0, ptr noundef nonnull align 8 dereferenceable(16) %1) unnamed_addr #6 align 2 {
  %3 = alloca ptr, align 8
  %4 = alloca ptr, align 8
  store ptr %0, ptr %3, align 8, !tbaa !28
  store ptr %1, ptr %4, align 8, !tbaa !668
  %5 = load ptr, ptr %3, align 8
  %6 = load ptr, ptr %4, align 8, !tbaa !668
  %7 = getelementptr inbounds nuw %"class.smt::theory_array", ptr %5, i32 0, i32 4
  %8 = getelementptr inbounds nuw %"struct.smt::theory_array_stats", ptr %7, i32 0, i32 0
  %9 = load i32, ptr %8, align 8, !tbaa !611
  call void @_ZN10statistics6updateEPKcj(ptr noundef nonnull align 8 dereferenceable(16) %6, ptr noundef @.str.20, i32 noundef %9)
  %10 = load ptr, ptr %4, align 8, !tbaa !668
  %11 = getelementptr inbounds nuw %"class.smt::theory_array", ptr %5, i32 0, i32 4
  %12 = getelementptr inbounds nuw %"struct.smt::theory_array_stats", ptr %11, i32 0, i32 1
  %13 = load i32, ptr %12, align 4, !tbaa !617
  call void @_ZN10statistics6updateEPKcj(ptr noundef nonnull align 8 dereferenceable(16) %10, ptr noundef @.str.21, i32 noundef %13)
  %14 = load ptr, ptr %4, align 8, !tbaa !668
  %15 = getelementptr inbounds nuw %"class.smt::theory_array", ptr %5, i32 0, i32 4
  %16 = getelementptr inbounds nuw %"struct.smt::theory_array_stats", ptr %15, i32 0, i32 2
  %17 = load i32, ptr %16, align 8, !tbaa !618
  call void @_ZN10statistics6updateEPKcj(ptr noundef nonnull align 8 dereferenceable(16) %14, ptr noundef @.str.22, i32 noundef %17)
  %18 = load ptr, ptr %4, align 8, !tbaa !668
  %19 = getelementptr inbounds nuw %"class.smt::theory_array", ptr %5, i32 0, i32 4
  %20 = getelementptr inbounds nuw %"struct.smt::theory_array_stats", ptr %19, i32 0, i32 3
  %21 = load i32, ptr %20, align 4, !tbaa !626
  call void @_ZN10statistics6updateEPKcj(ptr noundef nonnull align 8 dereferenceable(16) %18, ptr noundef @.str.23, i32 noundef %21)
  %22 = load ptr, ptr %4, align 8, !tbaa !668
  %23 = getelementptr inbounds nuw %"class.smt::theory_array", ptr %5, i32 0, i32 4
  %24 = getelementptr inbounds nuw %"struct.smt::theory_array_stats", ptr %23, i32 0, i32 4
  %25 = load i32, ptr %24, align 8, !tbaa !647
  call void @_ZN10statistics6updateEPKcj(ptr noundef nonnull align 8 dereferenceable(16) %22, ptr noundef @.str.24, i32 noundef %25)
  ret void
}