; Function Attrs: mustprogress uwtable
define hidden void @_ZNK3smt12theory_array18collect_statisticsER10statistics(ptr noundef nonnull readonly align 8 captures(none) dereferenceable(444) %0, ptr noundef nonnull align 8 dereferenceable(16) %1) unnamed_addr #4 align 2 {
  %3 = getelementptr inbounds nuw i8, ptr %0, i64 272
  %4 = load i32, ptr %3, align 8, !tbaa !614
  tail call void @_ZN10statistics6updateEPKcj(ptr noundef nonnull align 8 dereferenceable(16) %1, ptr noundef nonnull @.str.20, i32 noundef %4)
  %5 = getelementptr inbounds nuw i8, ptr %0, i64 276
  %6 = load i32, ptr %5, align 4, !tbaa !592
  tail call void @_ZN10statistics6updateEPKcj(ptr noundef nonnull align 8 dereferenceable(16) %1, ptr noundef nonnull @.str.21, i32 noundef %6)
  %7 = getelementptr inbounds nuw i8, ptr %0, i64 280
  %8 = load i32, ptr %7, align 8, !tbaa !594
  tail call void @_ZN10statistics6updateEPKcj(ptr noundef nonnull align 8 dereferenceable(16) %1, ptr noundef nonnull @.str.22, i32 noundef %8)
  %9 = getelementptr inbounds nuw i8, ptr %0, i64 284
  %10 = load i32, ptr %9, align 4, !tbaa !622
  tail call void @_ZN10statistics6updateEPKcj(ptr noundef nonnull align 8 dereferenceable(16) %1, ptr noundef nonnull @.str.23, i32 noundef %10)
  %11 = getelementptr inbounds nuw i8, ptr %0, i64 288
  %12 = load i32, ptr %11, align 8, !tbaa !632
  tail call void @_ZN10statistics6updateEPKcj(ptr noundef nonnull align 8 dereferenceable(16) %1, ptr noundef nonnull @.str.24, i32 noundef %12)
  ret void
}